; Function Attrs: nounwind uwtable
define internal fastcc i32 @ssl_connect_nonblocking(ptr noundef %0, ptr noundef %1, ptr noundef %2) unnamed_addr #2 {
  %4 = getelementptr inbounds nuw i8, ptr %1, i64 1376
  %5 = load i8, ptr %4, align 8
  %6 = zext i8 %5 to i32
  %7 = icmp ugt i8 %5, 7
  br i1 %7, label %ssl_prefs_check.exit, label %8

8:                                                ; preds = %3
  %9 = getelementptr inbounds nuw i8, ptr %1, i64 1372
  %10 = load i32, ptr %9, align 4
  switch i32 %10, label %11 [
    i32 0, label %14
    i32 65536, label %14
  ]

11:                                               ; preds = %8
  %12 = lshr i32 %10, 16
  %13 = icmp samesign ult i32 %12, %6
  br i1 %13, label %ssl_prefs_check.exit, label %14

ssl_prefs_check.exit:                             ; preds = %3, %11
  %.str.24.sink.i = phi ptr [ @.str.23, %3 ], [ @.str.24, %11 ]
  tail call void (ptr, ptr, ...) @Curl_failf(ptr noundef nonnull %1, ptr noundef nonnull %.str.24.sink.i) #18
  br label %19

14:                                               ; preds = %11, %8, %8
  %15 = load ptr, ptr @Curl_ssl, align 8
  %16 = getelementptr inbounds nuw i8, ptr %15, i64 104
  %17 = load ptr, ptr %16, align 8
  %18 = tail call i32 %17(ptr noundef %0, ptr noundef nonnull %1, ptr noundef %2) #18
  br label %19

19:                                               ; preds = %ssl_prefs_check.exit, %14
  %.0 = phi i32 [ %18, %14 ], [ 35, %ssl_prefs_check.exit ]
  ret i32 %.0
}